; Function Attrs: nofree norecurse nosync nounwind memory(read, inaccessiblemem: none) uwtable
define hidden zeroext i1 @SDL_ShouldFocusPopup(ptr noundef readonly captures(address) %0) local_unnamed_addr #12 {
  br label %2

2:                                                ; preds = %2, %1
  %.pn = phi ptr [ %0, %1 ], [ %.013, %2 ]
  %.013.in = getelementptr inbounds nuw i8, ptr %.pn, i64 424
  %.013 = load ptr, ptr %.013.in, align 8
  %3 = getelementptr inbounds nuw i8, ptr %.013, i64 72
  %4 = load i64, ptr %3, align 8
  %5 = and i64 %4, 786432
  %.not = icmp eq i64 %5, 0
  br i1 %.not, label %6, label %2, !llvm.loop !42

6:                                                ; preds = %2
  %7 = getelementptr inbounds nuw i8, ptr %.013, i64 400
  br label %8

8:                                                ; preds = %8, %6
  %.0.in = phi ptr [ %7, %6 ], [ %10, %8 ]
  %.0 = load ptr, ptr %.0.in, align 8
  %.not14.not = icmp eq ptr %.0, %.013
  %9 = icmp eq ptr %.0, %0
  %or.cond = or i1 %.not14.not, %9
  %10 = getelementptr inbounds nuw i8, ptr %.0, i64 424
  br i1 %or.cond, label %11, label %8, !llvm.loop !43

11:                                               ; preds = %8
  ret i1 %.not14.not
}